; Function Attrs: nofree norecurse nosync nounwind memory(readwrite, inaccessiblemem: none) uwtable
define void @Abc_NtkTransferCopy(ptr noundef readonly captures(none) %0) local_unnamed_addr #5 {
  %2 = getelementptr inbounds nuw i8, ptr %0, i64 32
  %3 = load ptr, ptr %2, align 8
  %4 = getelementptr i8, ptr %3, i64 4
  %.val14 = load i32, ptr %4, align 4
  %5 = icmp sgt i32 %.val14, 0
  br i1 %5, label %.lr.ph, label %.critedge

.lr.ph:                                           ; preds = %1, %30
  %6 = phi ptr [ %31, %30 ], [ %3, %1 ]
  %indvars.iv = phi i64 [ %indvars.iv.next, %30 ], [ 0, %1 ]
  %7 = getelementptr i8, ptr %6, i64 8
  %.val12.val = load ptr, ptr %7, align 8
  %8 = getelementptr inbounds nuw ptr, ptr %.val12.val, i64 %indvars.iv
  %9 = load ptr, ptr %8, align 8
  %10 = icmp eq ptr %9, null
  br i1 %10, label %30, label %11

11:                                               ; preds = %.lr.ph
  %12 = getelementptr i8, ptr %9, i64 20
  %.val13 = load i32, ptr %12, align 4
  %13 = and i32 %.val13, 15
  %.not = icmp eq i32 %13, 6
  br i1 %.not, label %30, label %14

14:                                               ; preds = %11
  %15 = getelementptr inbounds nuw i8, ptr %9, i64 64
  %16 = load ptr, ptr %15, align 8
  %.not11 = icmp eq ptr %16, null
  br i1 %.not11, label %28, label %17

17:                                               ; preds = %14
  %18 = ptrtoint ptr %16 to i64
  %19 = and i64 %18, -2
  %20 = inttoptr i64 %19 to ptr
  %21 = getelementptr inbounds nuw i8, ptr %20, i64 64
  %22 = load ptr, ptr %21, align 8
  %.not.i = icmp eq ptr %22, null
  %23 = and i64 %18, 1
  %24 = ptrtoint ptr %22 to i64
  %25 = xor i64 %23, %24
  %26 = inttoptr i64 %25 to ptr
  %27 = select i1 %.not.i, ptr null, ptr %26
  br label %28

28:                                               ; preds = %14, %17
  %29 = phi ptr [ %27, %17 ], [ null, %14 ]
  store ptr %29, ptr %15, align 8
  %.pre = load ptr, ptr %2, align 8
  br label %30

30:                                               ; preds = %.lr.ph, %28, %11
  %31 = phi ptr [ %6, %.lr.ph ], [ %.pre, %28 ], [ %6, %11 ]
  %indvars.iv.next = add nuw nsw i64 %indvars.iv, 1
  %32 = getelementptr i8, ptr %31, i64 4
  %.val = load i32, ptr %32, align 4
  %33 = sext i32 %.val to i64
  %34 = icmp slt i64 %indvars.iv.next, %33
  br i1 %34, label %.lr.ph, label %.critedge, !llvm.loop !85

.critedge:                                        ; preds = %30, %1
  ret void
}